; Function Attrs: nounwind uwtable
define range(i32 0, 2) i32 @Bnd_CheckFlagRec(ptr noundef readonly captures(none) %0, ptr noundef %1, ptr noundef captures(none) %2) local_unnamed_addr #1 {
  %4 = getelementptr i8, ptr %0, i64 32
  %.val20 = load ptr, ptr %4, align 8
  %5 = ptrtoint ptr %1 to i64
  %6 = ptrtoint ptr %.val20 to i64
  %7 = sub i64 %5, %6
  %8 = sdiv exact i64 %7, 12
  %9 = getelementptr i8, ptr %2, i64 8
  %.val19 = load ptr, ptr %9, align 8
  %sext = shl i64 %8, 32
  %10 = ashr exact i64 %sext, 30
  %11 = getelementptr inbounds i8, ptr %.val19, i64 %10
  %12 = load i32, ptr %11, align 4
  switch i32 %12, label %13 [
    i32 1, label %.loopexit
    i32 2, label %.fold.split
  ]

13:                                               ; preds = %3
  %14 = trunc i64 %8 to i32
  tail call fastcc void @Vec_IntSetEntry(ptr noundef nonnull %2, i32 noundef %14, i32 noundef 1)
  %15 = getelementptr i8, ptr %0, i64 40
  br label %16

16:                                               ; preds = %28, %13
  %.0 = phi i32 [ 0, %13 ], [ %33, %28 ]
  %.val22 = load ptr, ptr %15, align 8
  %.not.i.i.i = icmp eq ptr %.val22, null
  br i1 %.not.i.i.i, label %Gia_ObjIsMux.exit.thread.i, label %Gia_ObjIsMux.exit.i

Gia_ObjIsMux.exit.i:                              ; preds = %16
  %.val21 = load ptr, ptr %4, align 8
  %17 = ptrtoint ptr %.val21 to i64
  %18 = sub i64 %5, %17
  %19 = sdiv exact i64 %18, 12
  %sext.i.i = shl i64 %19, 32
  %20 = ashr exact i64 %sext.i.i, 30
  %21 = getelementptr inbounds i8, ptr %.val22, i64 %20
  %22 = load i32, ptr %21, align 4
  %.not2.i = icmp eq i32 %22, 0
  br i1 %.not2.i, label %Gia_ObjIsMux.exit.thread.i, label %Gia_ObjFaninNum.exit

Gia_ObjIsMux.exit.thread.i:                       ; preds = %Gia_ObjIsMux.exit.i, %16
  %.val8.i = load i64, ptr %1, align 4
  %23 = and i64 %.val8.i, 2147483648
  %.not.i.i = icmp eq i64 %23, 0
  %24 = and i64 %.val8.i, 536870911
  %25 = icmp ne i64 %24, 536870911
  %narrow.i.i = and i1 %.not.i.i, %25
  br i1 %narrow.i.i, label %Gia_ObjFaninNum.exit, label %26

26:                                               ; preds = %Gia_ObjIsMux.exit.thread.i
  %.not.i9.i = icmp ne i64 %23, 0
  %narrow.i10.i = and i1 %.not.i9.i, %25
  %..i = zext i1 %narrow.i10.i to i32
  br label %Gia_ObjFaninNum.exit

Gia_ObjFaninNum.exit:                             ; preds = %Gia_ObjIsMux.exit.i, %Gia_ObjIsMux.exit.thread.i, %26
  %.0.i = phi i32 [ 3, %Gia_ObjIsMux.exit.i ], [ 2, %Gia_ObjIsMux.exit.thread.i ], [ %..i, %26 ]
  %27 = icmp samesign ult i32 %.0, %.0.i
  br i1 %27, label %28, label %.loopexit

28:                                               ; preds = %Gia_ObjFaninNum.exit
  %.not.i = icmp eq i32 %.0, 0
  %29 = load i64, ptr %1, align 4
  %30 = lshr i64 %29, 32
  %.pn2.in.i = select i1 %.not.i, i64 %29, i64 %30
  %.pn2.i = and i64 %.pn2.in.i, 536870911
  %.pn.i = sub nsw i64 0, %.pn2.i
  %31 = getelementptr inbounds %struct.Gia_Obj_t_, ptr %1, i64 %.pn.i
  %32 = tail call i32 @Bnd_CheckFlagRec(ptr noundef nonnull %0, ptr noundef nonnull %31, ptr noundef nonnull %2)
  %.not = icmp eq i32 %32, 0
  %33 = add nuw nsw i32 %.0, 1
  br i1 %.not, label %.loopexit, label %16, !llvm.loop !24

.fold.split:                                      ; preds = %3
  br label %.loopexit

.loopexit:                                        ; preds = %Gia_ObjFaninNum.exit, %28, %3, %.fold.split
  %.018 = phi i32 [ %12, %3 ], [ 0, %.fold.split ], [ 0, %28 ], [ 1, %Gia_ObjFaninNum.exit ]
  ret i32 %.018
}